target datalayout = "e-m:e-p270:32:32-p271:32:32-p272:64:64-i64:64-i128:128-f80:128-n8:16:32:64-S128"
target triple = "x86_64-pc-linux-gnu"

%struct.evp_test_st = type { %struct.stanza_st, ptr, i32, ptr, ptr, ptr, ptr, ptr, ptr, i32 }
%struct.stanza_st = type { ptr, ptr, i32, i32, i32, i32, i32, i32, [150 x %struct.pair_st], ptr, [32768 x i8] }
%struct.pair_st = type { ptr, ptr }
%struct.digest_data_st = type { ptr, ptr, ptr, ptr, i64, i32, i32, i64 }

@propquery = internal global ptr null, align 8
@libctx = internal global ptr null, align 8
@.str.29 = private unnamed_addr constant [27 x i8] c"../openssl/test/evp_test.c\00", align 1
@.str.134 = private unnamed_addr constant [27 x i8] c"skipping, '%s' is disabled\00", align 1
@.str.138 = private unnamed_addr constant [14 x i8] c"%s is fetched\00", align 1
@.str.214 = private unnamed_addr constant [37 x i8] c"mdat = OPENSSL_zalloc(sizeof(*mdat))\00", align 1
@.str.215 = private unnamed_addr constant [4 x i8] c"MD2\00", align 1

; Function Attrs: nounwind uwtable
define internal i32 @is_digest_disabled(ptr noundef %0) #0 {
  %2 = alloca i32, align 4
  %3 = alloca ptr, align 8
  store ptr %0, ptr %3, align 8, !tbaa !4
  %4 = load ptr, ptr %3, align 8, !tbaa !4
  %5 = call i32 @OPENSSL_strcasecmp(ptr noundef %4, ptr noundef @.str.215)
  %6 = icmp eq i32 %5, 0
  br i1 %6, label %7, label %8

7:                                                ; preds = %1
  store i32 1, ptr %2, align 4
  br label %9

8:                                                ; preds = %1
  store i32 0, ptr %2, align 4
  br label %9

9:                                                ; preds = %8, %7
  %10 = load i32, ptr %2, align 4
  ret i32 %10
}

; Function Attrs: nounwind uwtable
define internal i32 @digest_test_init(ptr noundef %0, ptr noundef %1) #0 {
  %3 = alloca i32, align 4
  %4 = alloca ptr, align 8
  %5 = alloca ptr, align 8
  %6 = alloca ptr, align 8
  %7 = alloca ptr, align 8
  %8 = alloca ptr, align 8
  %9 = alloca i32, align 4
  store ptr %0, ptr %4, align 8, !tbaa !15
  store ptr %1, ptr %5, align 8, !tbaa !4
  call void @llvm.lifetime.start.p0(i64 8, ptr %6) #10
  call void @llvm.lifetime.start.p0(i64 8, ptr %7) #10
  call void @llvm.lifetime.start.p0(i64 8, ptr %8) #10
  %10 = load ptr, ptr %5, align 8, !tbaa !4
  %11 = call i32 @is_digest_disabled(ptr noundef %10)
  %12 = icmp ne i32 %11, 0
  br i1 %12, label %13, label %17

13:                                               ; preds = %2
  %14 = load ptr, ptr %5, align 8, !tbaa !4
  call void (ptr, i32, ptr, ...) @test_info(ptr noundef @.str.29, i32 noundef 671, ptr noundef @.str.134, ptr noundef %14)
  %15 = load ptr, ptr %4, align 8, !tbaa !15
  %16 = getelementptr inbounds nuw %struct.evp_test_st, ptr %15, i32 0, i32 2
  store i32 1, ptr %16, align 8, !tbaa !24
  store i32 1, ptr %3, align 4
  store i32 1, ptr %9, align 4
  br label %52

17:                                               ; preds = %2
  %18 = load ptr, ptr @libctx, align 8, !tbaa !17
  %19 = load ptr, ptr %5, align 8, !tbaa !4
  %20 = load ptr, ptr @propquery, align 8, !tbaa !4
  %21 = call ptr @EVP_MD_fetch(ptr noundef %18, ptr noundef %19, ptr noundef %20)
  store ptr %21, ptr %8, align 8, !tbaa !182
  store ptr %21, ptr %7, align 8, !tbaa !182
  %22 = icmp eq ptr %21, null
  br i1 %22, label %23, label %28

23:                                               ; preds = %17
  %24 = load ptr, ptr %5, align 8, !tbaa !4
  %25 = call ptr @EVP_get_digestbyname(ptr noundef %24)
  store ptr %25, ptr %7, align 8, !tbaa !182
  %26 = icmp eq ptr %25, null
  br i1 %26, label %27, label %28

27:                                               ; preds = %23
  store i32 0, ptr %3, align 4
  store i32 1, ptr %9, align 4
  br label %52

28:                                               ; preds = %23, %17
  %29 = call noalias ptr @CRYPTO_zalloc(i64 noundef 56, ptr noundef @.str.29, i32 noundef 679)
  store ptr %29, ptr %6, align 8, !tbaa !184
  %30 = call i32 @test_ptr(ptr noundef @.str.29, i32 noundef 679, ptr noundef @.str.214, ptr noundef %29)
  %31 = icmp ne i32 %30, 0
  br i1 %31, label %33, label %32

32:                                               ; preds = %28
  store i32 0, ptr %3, align 4
  store i32 1, ptr %9, align 4
  br label %52

33:                                               ; preds = %28
  %34 = load ptr, ptr %6, align 8, !tbaa !184
  %35 = load ptr, ptr %4, align 8, !tbaa !15
  %36 = getelementptr inbounds nuw %struct.evp_test_st, ptr %35, i32 0, i32 8
  store ptr %34, ptr %36, align 8, !tbaa !66
  %37 = load ptr, ptr %7, align 8, !tbaa !182
  %38 = load ptr, ptr %6, align 8, !tbaa !184
  %39 = getelementptr inbounds nuw %struct.digest_data_st, ptr %38, i32 0, i32 0
  store ptr %37, ptr %39, align 8, !tbaa !186
  %40 = load ptr, ptr %8, align 8, !tbaa !182
  %41 = load ptr, ptr %6, align 8, !tbaa !184
  %42 = getelementptr inbounds nuw %struct.digest_data_st, ptr %41, i32 0, i32 1
  store ptr %40, ptr %42, align 8, !tbaa !189
  %43 = load ptr, ptr %6, align 8, !tbaa !184
  %44 = getelementptr inbounds nuw %struct.digest_data_st, ptr %43, i32 0, i32 5
  store i32 0, ptr %44, align 8, !tbaa !190
  %45 = load ptr, ptr %6, align 8, !tbaa !184
  %46 = getelementptr inbounds nuw %struct.digest_data_st, ptr %45, i32 0, i32 6
  store i32 0, ptr %46, align 4, !tbaa !191
  %47 = load ptr, ptr %8, align 8, !tbaa !182
  %48 = icmp ne ptr %47, null
  br i1 %48, label %49, label %51

49:                                               ; preds = %33
  %50 = load ptr, ptr %5, align 8, !tbaa !4
  call void (ptr, i32, ptr, ...) @test_info(ptr noundef @.str.29, i32 noundef 687, ptr noundef @.str.138, ptr noundef %50)
  br label %51

51:                                               ; preds = %49, %33
  store i32 1, ptr %3, align 4
  store i32 1, ptr %9, align 4
  br label %52

52:                                               ; preds = %51, %32, %27, %13
  call void @llvm.lifetime.end.p0(i64 8, ptr %8) #10
  call void @llvm.lifetime.end.p0(i64 8, ptr %7) #10
  call void @llvm.lifetime.end.p0(i64 8, ptr %6) #10
  %53 = load i32, ptr %3, align 4
  ret i32 %53
}