; Function Attrs: nounwind uwtable
define internal range(i32 0, 2) i32 @digest_test_init(ptr noundef writeonly captures(none) %0, ptr noundef %1) #1 {
  %3 = tail call i32 @OPENSSL_strcasecmp(ptr noundef %1, ptr noundef nonnull @.str.215) #10
  %.not = icmp eq i32 %3, 0
  br i1 %.not, label %4, label %6

4:                                                ; preds = %2
  tail call void (ptr, i32, ptr, ...) @test_info(ptr noundef nonnull @.str.29, i32 noundef 671, ptr noundef nonnull @.str.134, ptr noundef %1) #10
  %5 = getelementptr inbounds nuw i8, ptr %0, i64 35224
  store i32 1, ptr %5, align 8, !tbaa !26
  br label %23

6:                                                ; preds = %2
  %7 = load ptr, ptr @libctx, align 8, !tbaa !13
  %8 = load ptr, ptr @propquery, align 8, !tbaa !10
  %9 = tail call ptr @EVP_MD_fetch(ptr noundef %7, ptr noundef %1, ptr noundef %8) #10
  %10 = icmp eq ptr %9, null
  br i1 %10, label %11, label %14

11:                                               ; preds = %6
  %12 = tail call ptr @EVP_get_digestbyname(ptr noundef %1) #10
  %13 = icmp eq ptr %12, null
  br i1 %13, label %23, label %14

14:                                               ; preds = %11, %6
  %.015 = phi ptr [ %12, %11 ], [ %9, %6 ]
  %15 = tail call noalias ptr @CRYPTO_zalloc(i64 noundef 56, ptr noundef nonnull @.str.29, i32 noundef 679) #10
  %16 = tail call i32 @test_ptr(ptr noundef nonnull @.str.29, i32 noundef 679, ptr noundef nonnull @.str.214, ptr noundef %15) #10
  %.not18 = icmp eq i32 %16, 0
  br i1 %.not18, label %23, label %17

17:                                               ; preds = %14
  %18 = getelementptr inbounds nuw i8, ptr %0, i64 35272
  store ptr %15, ptr %18, align 8, !tbaa !20
  store ptr %.015, ptr %15, align 8, !tbaa !150
  %19 = getelementptr inbounds nuw i8, ptr %15, i64 8
  store ptr %9, ptr %19, align 8, !tbaa !154
  %20 = getelementptr inbounds nuw i8, ptr %15, i64 40
  store i32 0, ptr %20, align 8, !tbaa !155
  %21 = getelementptr inbounds nuw i8, ptr %15, i64 44
  store i32 0, ptr %21, align 4, !tbaa !156
  br i1 %10, label %23, label %22

22:                                               ; preds = %17
  tail call void (ptr, i32, ptr, ...) @test_info(ptr noundef nonnull @.str.29, i32 noundef 687, ptr noundef nonnull @.str.138, ptr noundef %1) #10
  br label %23

23:                                               ; preds = %17, %22, %14, %11, %4
  %.0 = phi i32 [ 1, %4 ], [ 0, %11 ], [ 0, %14 ], [ 1, %22 ], [ 1, %17 ]
  ret i32 %.0
}